target datalayout = "e-m:e-p270:32:32-p271:32:32-p272:64:64-i64:64-i128:128-f80:128-n8:16:32:64-S128"
target triple = "x86_64-pc-linux-gnu"

%struct.Cbs2_Par_t_ = type { i32, i32, i32, i32, i32, i32, i32, i32, i32, i32, i32, i32 }
%struct.Cbs2_Man_t_ = type { %struct.Cbs2_Par_t_, ptr, %struct.Cbs2_Que_t_, %struct.Cbs2_Que_t_, %struct.Cbs2_Que_t_, ptr, ptr, %struct.Vec_Str_t_, %struct.Vec_Str_t_, %struct.Vec_Int_t_, %struct.Vec_Int_t_, %struct.Vec_Int_t_, %struct.Vec_Int_t_, %struct.Vec_Int_t_, %struct.Vec_Int_t_, %struct.Vec_Int_t_, %struct.Vec_Int_t_, i32, i32, i32, i32, i32, i32, i32, i64, i64, i64, i64, i64, [3 x i32], [2 x i32], i32 }
%struct.Cbs2_Que_t_ = type { i32, i32, i32, ptr }
%struct.Vec_Str_t_ = type { i32, i32, ptr }
%struct.Vec_Int_t_ = type { i32, i32, ptr }

@.str.4 = private unnamed_addr constant [2 x i8] c"\0A\00", align 1
@.str.13 = private unnamed_addr constant [21 x i8] c"Fanouts of node %d: \00", align 1
@.str.14 = private unnamed_addr constant [4 x i8] c"%d \00", align 1

; Function Attrs: inlinehint nounwind uwtable
define internal i32 @Abc_Lit2Var(i32 noundef %0) #5 {
  %2 = alloca i32, align 4
  store i32 %0, ptr %2, align 4, !tbaa !19
  %3 = load i32, ptr %2, align 4, !tbaa !19
  %4 = ashr i32 %3, 1
  ret i32 %4
}

; Function Attrs: inlinehint nounwind uwtable
define internal i32 @Vec_IntEntry(ptr noundef %0, i32 noundef %1) #5 {
  %3 = alloca ptr, align 8
  %4 = alloca i32, align 4
  store ptr %0, ptr %3, align 8, !tbaa !42
  store i32 %1, ptr %4, align 4, !tbaa !19
  %5 = load ptr, ptr %3, align 8, !tbaa !42
  %6 = getelementptr inbounds nuw %struct.Vec_Int_t_, ptr %5, i32 0, i32 2
  %7 = load ptr, ptr %6, align 8, !tbaa !45
  %8 = load i32, ptr %4, align 4, !tbaa !19
  %9 = sext i32 %8 to i64
  %10 = getelementptr inbounds i32, ptr %7, i64 %9
  %11 = load i32, ptr %10, align 4, !tbaa !19
  ret i32 %11
}

; Function Attrs: nounwind uwtable
define void @Cbs2_ObjPrintFanouts(ptr noundef %0, i32 noundef %1) #0 {
  %3 = alloca ptr, align 8
  %4 = alloca i32, align 4
  %5 = alloca i32, align 4
  store ptr %0, ptr %3, align 8, !tbaa !17
  store i32 %1, ptr %4, align 4, !tbaa !19
  call void @llvm.lifetime.start.p0(i64 4, ptr %5) #11
  %6 = load i32, ptr %4, align 4, !tbaa !19
  %7 = call i32 (ptr, ...) @printf(ptr noundef @.str.13, i32 noundef %6)
  %8 = load ptr, ptr %3, align 8, !tbaa !17
  %9 = getelementptr inbounds nuw %struct.Cbs2_Man_t_, ptr %8, i32 0, i32 13
  %10 = load i32, ptr %4, align 4, !tbaa !19
  %11 = call i32 @Vec_IntEntry(ptr noundef %9, i32 noundef %10)
  store i32 %11, ptr %5, align 4, !tbaa !19
  br label %12

12:                                               ; preds = %19, %2
  %13 = load i32, ptr %5, align 4, !tbaa !19
  %14 = icmp ne i32 %13, 0
  br i1 %14, label %15, label %24

15:                                               ; preds = %12
  %16 = load i32, ptr %5, align 4, !tbaa !19
  %17 = call i32 @Abc_Lit2Var(i32 noundef %16)
  %18 = call i32 (ptr, ...) @printf(ptr noundef @.str.14, i32 noundef %17)
  br label %19

19:                                               ; preds = %15
  %20 = load ptr, ptr %3, align 8, !tbaa !17
  %21 = getelementptr inbounds nuw %struct.Cbs2_Man_t_, ptr %20, i32 0, i32 12
  %22 = load i32, ptr %5, align 4, !tbaa !19
  %23 = call i32 @Vec_IntEntry(ptr noundef %21, i32 noundef %22)
  store i32 %23, ptr %5, align 4, !tbaa !19
  br label %12, !llvm.loop !127

24:                                               ; preds = %12
  %25 = call i32 (ptr, ...) @printf(ptr noundef @.str.4)
  call void @llvm.lifetime.end.p0(i64 4, ptr %5) #11
  ret void
}