; Function Attrs: nofree nounwind uwtable
define void @Cbs2_ObjPrintFanouts(ptr noundef readonly captures(none) %0, i32 noundef %1) local_unnamed_addr #13 {
  %3 = tail call i32 (ptr, ...) @printf(ptr noundef nonnull dereferenceable(1) @.str.13, i32 noundef %1)
  %4 = getelementptr i8, ptr %0, i64 248
  %.val6 = load ptr, ptr %4, align 8, !tbaa !35
  %5 = sext i32 %1 to i64
  %6 = getelementptr inbounds i32, ptr %.val6, i64 %5
  %.07 = load i32, ptr %6, align 4, !tbaa !60
  %.not8 = icmp eq i32 %.07, 0
  br i1 %.not8, label %._crit_edge, label %.lr.ph

.lr.ph:                                           ; preds = %2
  %7 = getelementptr i8, ptr %0, i64 232
  br label %8

8:                                                ; preds = %.lr.ph, %8
  %.09 = phi i32 [ %.07, %.lr.ph ], [ %.0, %8 ]
  %9 = ashr i32 %.09, 1
  %10 = tail call i32 (ptr, ...) @printf(ptr noundef nonnull dereferenceable(1) @.str.14, i32 noundef %9)
  %.val = load ptr, ptr %7, align 8, !tbaa !35
  %11 = sext i32 %.09 to i64
  %12 = getelementptr inbounds i32, ptr %.val, i64 %11
  %.0 = load i32, ptr %12, align 4, !tbaa !60
  %.not = icmp eq i32 %.0, 0
  br i1 %.not, label %._crit_edge, label %8, !llvm.loop !119

._crit_edge:                                      ; preds = %8, %2
  %putchar = tail call i32 @putchar(i32 10)
  ret void
}